target datalayout = "e-m:e-p270:32:32-p271:32:32-p272:64:64-i64:64-i128:128-f80:128-n8:16:32:64-S128"
target triple = "x86_64-pc-linux-gnu"

%struct.Agobj_s = type { %struct.Agtag_s, ptr }
%struct.Agtag_s = type { i32, i64 }
%struct.Agnodeinfo_t = type { %struct.Agrec_s, ptr, ptr, %struct.pointf_s, double, double, %struct.boxf, double, double, double, double, double, ptr, ptr, ptr, i8, i8, i8, i8, i32, i32, i32, ptr, double, i8, i8, ptr, ptr, i8, i64, i8, i8, i8, ptr, ptr, %struct.elist, %struct.elist, %struct.elist, %struct.elist, %struct.elist, ptr, i32, ptr, i32, i32, double, %struct.elist, %struct.elist, %struct.elist, %struct.elist, ptr, i32, i32, i32, [1 x double] }
%struct.Agrec_s = type { ptr, ptr }
%struct.pointf_s = type { double, double }
%struct.boxf = type { %struct.pointf_s, %struct.pointf_s }
%struct.elist = type { ptr, i64 }
%struct.Agedge_s = type { %struct.Agobj_s, %struct.dtlink_s_, %struct.dtlink_s_, ptr }
%struct.dtlink_s_ = type { ptr, %union.anon }
%union.anon = type { ptr }
%struct.Agedgeinfo_t = type { %struct.Agrec_s, ptr, %struct.port, %struct.port, ptr, ptr, ptr, ptr, i8, i8, i8, i8, i8, ptr, ptr, double, double, %struct.Ppoly_t, i8, i8, i16, i32, i32, i32, i16, i32, ptr }
%struct.port = type { %struct.pointf_s, double, ptr, i8, i8, i8, i8, i8, i8, ptr }
%struct.Ppoly_t = type { ptr, i64 }

; Function Attrs: nounwind uwtable
define void @zapinlist(ptr noundef %0, ptr noundef %1) #0 {
  %3 = alloca ptr, align 8
  %4 = alloca ptr, align 8
  %5 = alloca i64, align 8
  %6 = alloca i32, align 4
  store ptr %0, ptr %3, align 8, !tbaa !47
  store ptr %1, ptr %4, align 8, !tbaa !19
  call void @llvm.lifetime.start.p0(i64 8, ptr %5) #11
  store i64 0, ptr %5, align 8, !tbaa !44
  br label %7

7:                                                ; preds = %49, %2
  %8 = load i64, ptr %5, align 8, !tbaa !44
  %9 = load ptr, ptr %3, align 8, !tbaa !47
  %10 = getelementptr inbounds nuw %struct.elist, ptr %9, i32 0, i32 1
  %11 = load i64, ptr %10, align 8, !tbaa !14
  %12 = icmp ult i64 %8, %11
  br i1 %12, label %14, label %13

13:                                               ; preds = %7
  store i32 2, ptr %6, align 4
  br label %52

14:                                               ; preds = %7
  %15 = load ptr, ptr %3, align 8, !tbaa !47
  %16 = getelementptr inbounds nuw %struct.elist, ptr %15, i32 0, i32 0
  %17 = load ptr, ptr %16, align 8, !tbaa !18
  %18 = load i64, ptr %5, align 8, !tbaa !44
  %19 = getelementptr inbounds nuw ptr, ptr %17, i64 %18
  %20 = load ptr, ptr %19, align 8, !tbaa !19
  %21 = load ptr, ptr %4, align 8, !tbaa !19
  %22 = icmp eq ptr %20, %21
  br i1 %22, label %23, label %48

23:                                               ; preds = %14
  %24 = load ptr, ptr %3, align 8, !tbaa !47
  %25 = getelementptr inbounds nuw %struct.elist, ptr %24, i32 0, i32 1
  %26 = load i64, ptr %25, align 8, !tbaa !14
  %27 = add i64 %26, -1
  store i64 %27, ptr %25, align 8, !tbaa !14
  %28 = load ptr, ptr %3, align 8, !tbaa !47
  %29 = getelementptr inbounds nuw %struct.elist, ptr %28, i32 0, i32 0
  %30 = load ptr, ptr %29, align 8, !tbaa !18
  %31 = load ptr, ptr %3, align 8, !tbaa !47
  %32 = getelementptr inbounds nuw %struct.elist, ptr %31, i32 0, i32 1
  %33 = load i64, ptr %32, align 8, !tbaa !14
  %34 = getelementptr inbounds nuw ptr, ptr %30, i64 %33
  %35 = load ptr, ptr %34, align 8, !tbaa !19
  %36 = load ptr, ptr %3, align 8, !tbaa !47
  %37 = getelementptr inbounds nuw %struct.elist, ptr %36, i32 0, i32 0
  %38 = load ptr, ptr %37, align 8, !tbaa !18
  %39 = load i64, ptr %5, align 8, !tbaa !44
  %40 = getelementptr inbounds nuw ptr, ptr %38, i64 %39
  store ptr %35, ptr %40, align 8, !tbaa !19
  %41 = load ptr, ptr %3, align 8, !tbaa !47
  %42 = getelementptr inbounds nuw %struct.elist, ptr %41, i32 0, i32 0
  %43 = load ptr, ptr %42, align 8, !tbaa !18
  %44 = load ptr, ptr %3, align 8, !tbaa !47
  %45 = getelementptr inbounds nuw %struct.elist, ptr %44, i32 0, i32 1
  %46 = load i64, ptr %45, align 8, !tbaa !14
  %47 = getelementptr inbounds nuw ptr, ptr %43, i64 %46
  store ptr null, ptr %47, align 8, !tbaa !19
  store i32 2, ptr %6, align 4
  br label %52

48:                                               ; preds = %14
  br label %49

49:                                               ; preds = %48
  %50 = load i64, ptr %5, align 8, !tbaa !44
  %51 = add i64 %50, 1
  store i64 %51, ptr %5, align 8, !tbaa !44
  br label %7, !llvm.loop !49

52:                                               ; preds = %23, %13
  call void @llvm.lifetime.end.p0(i64 8, ptr %5) #11
  br label %53

53:                                               ; preds = %52
  ret void
}

; Function Attrs: nounwind uwtable
define void @delete_flat_edge(ptr noundef %0) #0 {
  %2 = alloca ptr, align 8
  store ptr %0, ptr %2, align 8, !tbaa !19
  %3 = load ptr, ptr %2, align 8, !tbaa !19
  %4 = getelementptr inbounds nuw %struct.Agobj_s, ptr %3, i32 0, i32 1
  %5 = load ptr, ptr %4, align 8, !tbaa !8
  %6 = getelementptr inbounds nuw %struct.Agedgeinfo_t, ptr %5, i32 0, i32 13
  %7 = load ptr, ptr %6, align 8, !tbaa !74
  %8 = icmp ne ptr %7, null
  br i1 %8, label %9, label %30

9:                                                ; preds = %1
  %10 = load ptr, ptr %2, align 8, !tbaa !19
  %11 = getelementptr inbounds nuw %struct.Agobj_s, ptr %10, i32 0, i32 1
  %12 = load ptr, ptr %11, align 8, !tbaa !8
  %13 = getelementptr inbounds nuw %struct.Agedgeinfo_t, ptr %12, i32 0, i32 13
  %14 = load ptr, ptr %13, align 8, !tbaa !74
  %15 = getelementptr inbounds nuw %struct.Agobj_s, ptr %14, i32 0, i32 1
  %16 = load ptr, ptr %15, align 8, !tbaa !8
  %17 = getelementptr inbounds nuw %struct.Agedgeinfo_t, ptr %16, i32 0, i32 26
  %18 = load ptr, ptr %17, align 8, !tbaa !73
  %19 = load ptr, ptr %2, align 8, !tbaa !19
  %20 = icmp eq ptr %18, %19
  br i1 %20, label %21, label %30

21:                                               ; preds = %9
  %22 = load ptr, ptr %2, align 8, !tbaa !19
  %23 = getelementptr inbounds nuw %struct.Agobj_s, ptr %22, i32 0, i32 1
  %24 = load ptr, ptr %23, align 8, !tbaa !8
  %25 = getelementptr inbounds nuw %struct.Agedgeinfo_t, ptr %24, i32 0, i32 13
  %26 = load ptr, ptr %25, align 8, !tbaa !74
  %27 = getelementptr inbounds nuw %struct.Agobj_s, ptr %26, i32 0, i32 1
  %28 = load ptr, ptr %27, align 8, !tbaa !8
  %29 = getelementptr inbounds nuw %struct.Agedgeinfo_t, ptr %28, i32 0, i32 26
  store ptr null, ptr %29, align 8, !tbaa !73
  br label %30

30:                                               ; preds = %21, %9, %1
  %31 = load ptr, ptr %2, align 8, !tbaa !19
  %32 = getelementptr inbounds nuw %struct.Agobj_s, ptr %31, i32 0, i32 0
  %33 = load i32, ptr %32, align 8
  %34 = and i32 %33, 3
  %35 = icmp eq i32 %34, 3
  br i1 %35, label %36, label %38

36:                                               ; preds = %30
  %37 = load ptr, ptr %2, align 8, !tbaa !19
  br label %41

38:                                               ; preds = %30
  %39 = load ptr, ptr %2, align 8, !tbaa !19
  %40 = getelementptr inbounds %struct.Agedge_s, ptr %39, i64 1
  br label %41

41:                                               ; preds = %38, %36
  %42 = phi ptr [ %37, %36 ], [ %40, %38 ]
  %43 = getelementptr inbounds nuw %struct.Agedge_s, ptr %42, i32 0, i32 3
  %44 = load ptr, ptr %43, align 8, !tbaa !21
  %45 = getelementptr inbounds nuw %struct.Agobj_s, ptr %44, i32 0, i32 1
  %46 = load ptr, ptr %45, align 8, !tbaa !8
  %47 = getelementptr inbounds nuw %struct.Agnodeinfo_t, ptr %46, i32 0, i32 37
  %48 = load ptr, ptr %2, align 8, !tbaa !19
  call void @zapinlist(ptr noundef %47, ptr noundef %48)
  %49 = load ptr, ptr %2, align 8, !tbaa !19
  %50 = getelementptr inbounds nuw %struct.Agobj_s, ptr %49, i32 0, i32 0
  %51 = load i32, ptr %50, align 8
  %52 = and i32 %51, 3
  %53 = icmp eq i32 %52, 2
  br i1 %53, label %54, label %56

54:                                               ; preds = %41
  %55 = load ptr, ptr %2, align 8, !tbaa !19
  br label %59

56:                                               ; preds = %41
  %57 = load ptr, ptr %2, align 8, !tbaa !19
  %58 = getelementptr inbounds %struct.Agedge_s, ptr %57, i64 -1
  br label %59

59:                                               ; preds = %56, %54
  %60 = phi ptr [ %55, %54 ], [ %58, %56 ]
  %61 = getelementptr inbounds nuw %struct.Agedge_s, ptr %60, i32 0, i32 3
  %62 = load ptr, ptr %61, align 8, !tbaa !21
  %63 = getelementptr inbounds nuw %struct.Agobj_s, ptr %62, i32 0, i32 1
  %64 = load ptr, ptr %63, align 8, !tbaa !8
  %65 = getelementptr inbounds nuw %struct.Agnodeinfo_t, ptr %64, i32 0, i32 38
  %66 = load ptr, ptr %2, align 8, !tbaa !19
  call void @zapinlist(ptr noundef %65, ptr noundef %66)
  ret void
}