; Function Attrs: nofree norecurse nosync nounwind memory(readwrite, inaccessiblemem: none) uwtable
define void @delete_flat_edge(ptr noundef readonly captures(address) %0) local_unnamed_addr #2 {
  %2 = getelementptr inbounds nuw i8, ptr %0, i64 16
  %3 = load ptr, ptr %2, align 8, !tbaa !3
  %4 = getelementptr inbounds nuw i8, ptr %3, i64 160
  %5 = load ptr, ptr %4, align 8, !tbaa !61
  %.not = icmp eq ptr %5, null
  br i1 %.not, label %13, label %6

6:                                                ; preds = %1
  %7 = getelementptr inbounds nuw i8, ptr %5, i64 16
  %8 = load ptr, ptr %7, align 8, !tbaa !3
  %9 = getelementptr inbounds nuw i8, ptr %8, i64 232
  %10 = load ptr, ptr %9, align 8, !tbaa !60
  %11 = icmp eq ptr %10, %0
  br i1 %11, label %12, label %13

12:                                               ; preds = %6
  store ptr null, ptr %9, align 8, !tbaa !60
  br label %13

13:                                               ; preds = %12, %6, %1
  %14 = load i32, ptr %0, align 8
  %15 = and i32 %14, 3
  %16 = icmp eq i32 %15, 3
  %.idx = select i1 %16, i64 0, i64 64
  %17 = getelementptr inbounds nuw i8, ptr %0, i64 %.idx
  %18 = getelementptr inbounds nuw i8, ptr %17, i64 56
  %19 = load ptr, ptr %18, align 8, !tbaa !16
  %20 = getelementptr inbounds nuw i8, ptr %19, i64 16
  %21 = load ptr, ptr %20, align 8, !tbaa !3
  %22 = getelementptr inbounds nuw i8, ptr %21, i64 296
  %23 = load i64, ptr %22, align 8, !tbaa !41
  %.not.i = icmp eq i64 %23, 0
  br i1 %.not.i, label %zapinlist.exit, label %.lr.ph.i

.lr.ph.i:                                         ; preds = %13
  %24 = getelementptr inbounds nuw i8, ptr %21, i64 288
  %25 = load ptr, ptr %24, align 8, !tbaa !42
  br label %26

26:                                               ; preds = %35, %.lr.ph.i
  %.018.i = phi i64 [ 0, %.lr.ph.i ], [ %36, %35 ]
  %27 = getelementptr inbounds nuw ptr, ptr %25, i64 %.018.i
  %28 = load ptr, ptr %27, align 8, !tbaa !12
  %29 = icmp eq ptr %28, %0
  br i1 %29, label %30, label %35

30:                                               ; preds = %26
  %31 = getelementptr inbounds nuw ptr, ptr %25, i64 %.018.i
  %32 = add i64 %23, -1
  store i64 %32, ptr %22, align 8, !tbaa !41
  %33 = getelementptr inbounds nuw ptr, ptr %25, i64 %32
  %34 = load ptr, ptr %33, align 8, !tbaa !12
  store ptr %34, ptr %31, align 8, !tbaa !12
  store ptr null, ptr %33, align 8, !tbaa !12
  %.pre = load i32, ptr %0, align 8
  %.pre23 = and i32 %.pre, 3
  br label %zapinlist.exit

35:                                               ; preds = %26
  %36 = add nuw i64 %.018.i, 1
  %exitcond.not.i = icmp eq i64 %36, %23
  br i1 %exitcond.not.i, label %zapinlist.exit, label %26, !llvm.loop !43

zapinlist.exit:                                   ; preds = %35, %13, %30
  %.pre-phi = phi i32 [ %15, %13 ], [ %.pre23, %30 ], [ %15, %35 ]
  %37 = icmp eq i32 %.pre-phi, 2
  %.idx12 = select i1 %37, i64 0, i64 -64
  %38 = getelementptr inbounds i8, ptr %0, i64 %.idx12
  %39 = getelementptr inbounds nuw i8, ptr %38, i64 56
  %40 = load ptr, ptr %39, align 8, !tbaa !16
  %41 = getelementptr inbounds nuw i8, ptr %40, i64 16
  %42 = load ptr, ptr %41, align 8, !tbaa !3
  %43 = getelementptr inbounds nuw i8, ptr %42, i64 312
  %44 = load i64, ptr %43, align 8, !tbaa !41
  %.not.i13 = icmp eq i64 %44, 0
  br i1 %.not.i13, label %zapinlist.exit17, label %.lr.ph.i14

.lr.ph.i14:                                       ; preds = %zapinlist.exit
  %45 = getelementptr inbounds nuw i8, ptr %42, i64 304
  %46 = load ptr, ptr %45, align 8, !tbaa !42
  br label %47

47:                                               ; preds = %56, %.lr.ph.i14
  %.018.i15 = phi i64 [ 0, %.lr.ph.i14 ], [ %57, %56 ]
  %48 = getelementptr inbounds nuw ptr, ptr %46, i64 %.018.i15
  %49 = load ptr, ptr %48, align 8, !tbaa !12
  %50 = icmp eq ptr %49, %0
  br i1 %50, label %51, label %56

51:                                               ; preds = %47
  %52 = getelementptr inbounds nuw ptr, ptr %46, i64 %.018.i15
  %53 = add i64 %44, -1
  store i64 %53, ptr %43, align 8, !tbaa !41
  %54 = getelementptr inbounds nuw ptr, ptr %46, i64 %53
  %55 = load ptr, ptr %54, align 8, !tbaa !12
  store ptr %55, ptr %52, align 8, !tbaa !12
  store ptr null, ptr %54, align 8, !tbaa !12
  br label %zapinlist.exit17

56:                                               ; preds = %47
  %57 = add nuw i64 %.018.i15, 1
  %exitcond.not.i16 = icmp eq i64 %57, %44
  br i1 %exitcond.not.i16, label %zapinlist.exit17, label %47, !llvm.loop !43

zapinlist.exit17:                                 ; preds = %56, %zapinlist.exit, %51
  ret void
}